Certificate:
    Data:
        Version: 3 (0x2)
        Serial Number: 9970931265767993073 (0x8a5fdd286fefeef1)
    Signature Algorithm: sha256WithRSAEncryption
        Issuer: C=DE, ST=Berlin, O=Technische Universit\xC3\x83\xC2\xA4t Berlin, OU=Service-centric Networking (SNET), CN=TRESOR Demonstrator Root CA/emailAddress=mathias.slawik@tu-berlin.de
        Validity
            Not Before: Jan  9 11:11:23 2015 GMT
            Not After : Jan  8 11:11:23 2020 GMT
        Subject: C=DE, ST=Berlin, L=Berlin, O=Technische Universit\xC3\x83\xC2\xA4t Berlin, OU=Service-centric Networking (SNET), CN=*.service.cloud-tresor.com/emailAddress=mathias.slawik@tu-berlin.de
        Subject Public Key Info:
            Public Key Algorithm: rsaEncryption
                Public-Key: (2048 bit)
                Modulus:
                    00:c4:bc:9f:49:5b:f0:c6:48:df:c3:c2:5e:52:ac:
                    f1:10:3a:2c:26:d5:5e:d4:11:50:28:bf:61:91:b9:
                    f3:d1:ca:31:2c:50:20:a0:8b:59:2e:46:a8:0a:25:
                    45:71:fe:bc:9a:30:08:73:c1:0b:6b:85:17:41:89:
                    c0:f9:f3:a0:ad:f9:ab:e7:b7:69:a6:7f:84:7e:ef:
                    1c:04:f2:0a:0f:f3:ee:55:5d:e9:35:88:ca:c8:ad:
                    a0:e1:9b:4b:de:d5:a8:f9:f4:b6:f0:8d:2c:08:41:
                    9a:83:39:41:6d:e6:38:9a:f8:5f:10:fc:10:67:68:
                    e7:ee:c2:a3:96:5b:23:65:b3:c5:be:c3:96:49:5e:
                    70:92:d6:7e:49:7b:9e:d3:20:d9:b5:02:0c:ed:99:
                    f1:54:4c:b7:c0:fe:01:a2:77:ae:23:cb:c0:cd:94:
                    f9:c9:7a:8e:3c:f4:5a:45:97:93:9d:ed:8e:df:c6:
                    e3:67:b9:9f:29:18:20:f2:69:25:62:f2:79:3b:83:
                    96:62:03:98:67:e0:d3:3d:cc:28:2b:f5:33:9f:e9:
                    a9:8d:97:37:a1:a7:cb:dc:b9:d8:48:89:a4:8a:a1:
                    41:9b:89:89:c0:5a:14:27:13:a4:f6:c4:44:f0:fb:
                    5c:5d:63:d0:bd:24:56:8a:43:e0:cc:27:78:cd:3c:
                    cb:27
                Exponent: 65537 (0x10001)
        X509v3 extensions:
            X509v3 Basic Constraints: 
                CA:FALSE
            Netscape Comment: 
                OpenSSL Generated Certificate
            X509v3 Subject Key Identifier: 
                29:D4:E4:AB:26:B2:C3:76:00:1B:05:A7:A6:35:87:89:5F:45:CC:86
            X509v3 Authority Key Identifier: 
                keyid:00:65:8C:8A:5A:68:DD:0D:A5:65:CE:FE:C4:54:A0:AE:24:E8:86:5E

    Signature Algorithm: sha256WithRSAEncryption
         9a:d3:f9:24:1d:39:4b:80:68:87:f8:76:d1:67:b9:74:7b:d8:
         5e:3c:e1:c8:12:87:dc:97:3f:2e:2b:3d:e7:7d:94:de:54:cb:
         0c:46:e6:f2:8a:2e:28:18:81:2e:45:14:ea:06:0f:60:c3:74:
         a2:a0:e9:83:da:78:52:6a:f7:eb:aa:f6:e7:c2:43:db:83:9b:
         96:2d:eb:cf:3d:db:85:ff:71:53:c7:4b:6d:82:0e:22:ef:80:
         06:c2:18:0b:a0:cf:5b:03:d9:e9:88:65:40:8f:b3:51:90:0f:
         e3:80:e6:89:5b:02:bb:6c:aa:a0:7e:7e:97:64:4a:eb:e0:12:
         c4:4f:b3:71:5a:64:1f:a2:75:02:4c:e8:fa:92:b8:6b:bf:03:
         c8:ee:42:aa:3a:8b:af:66:a1:16:a5:f3:e8:8a:f3:64:46:f8:
         1b:98:d5:5f:c9:c2:36:2b:9a:5b:2d:8a:b2:54:30:d4:23:4b:
         1b:8d:d6:34:72:6e:48:da:ff:2f:49:43:0b:32:8b:ed:df:a0:
         d8:92:b8:49:b0:cc:0a:b2:92:62:c5:18:4a:47:21:2a:3b:81:
         33:64:71:67:7e:fe:09:66:7c:df:02:29:5f:de:87:b3:e7:34:
         29:62:f9:b0:60:5c:67:72:29:02:0c:6e:61:ac:65:95:c2:f9:
         69:17:ab:62
-----BEGIN CERTIFICATE-----
MIIEnjCCA4agAwIBAgIJAIpf3Shv7+7xMA0GCSqGSIb3DQEBCwUAMIHHMQswCQYD
VQQGEwJERTEPMA0GA1UECAwGQmVybGluMSkwJwYDVQQKDCBUZWNobmlzY2hlIFVu
aXZlcnNpdMODwqR0IEJlcmxpbjEqMCgGA1UECwwhU2VydmljZS1jZW50cmljIE5l
dHdvcmtpbmcgKFNORVQpMSQwIgYDVQQDDBtUUkVTT1IgRGVtb25zdHJhdG9yIFJv
b3QgQ0ExKjAoBgkqhkiG9w0BCQEWG21hdGhpYXMuc2xhd2lrQHR1LWJlcmxpbi5k
ZTAeFw0xNTAxMDkxMTExMjNaFw0yMDAxMDgxMTExMjNaMIHXMQswCQYDVQQGEwJE
RTEPMA0GA1UECAwGQmVybGluMQ8wDQYDVQQHDAZCZXJsaW4xKTAnBgNVBAoMIFRl
Y2huaXNjaGUgVW5pdmVyc2l0w4PCpHQgQmVybGluMSowKAYDVQQLDCFTZXJ2aWNl
LWNlbnRyaWMgTmV0d29ya2luZyAoU05FVCkxIzAhBgNVBAMMGiouc2VydmljZS5j
bG91ZC10cmVzb3IuY29tMSowKAYJKoZIhvcNAQkBFhttYXRoaWFzLnNsYXdpa0B0
dS1iZXJsaW4uZGUwggEiMA0GCSqGSIb3DQEBAQUAA4IBDwAwggEKAoIBAQDEvJ9J
W/DGSN/Dwl5SrPEQOiwm1V7UEVAov2GRufPRyjEsUCCgi1kuRqgKJUVx/ryaMAhz
wQtrhRdBicD586Ct+avnt2mmf4R+7xwE8goP8+5VXek1iMrIraDhm0ve1aj59Lbw
jSwIQZqDOUFt5jia+F8Q/BBnaOfuwqOWWyNls8W+w5ZJXnCS1n5Je57TINm1Agzt
mfFUTLfA/gGid64jy8DNlPnJeo489FpFl5Od7Y7fxuNnuZ8pGCDyaSVi8nk7g5Zi
A5hn4NM9zCgr9TOf6amNlzehp8vcudhIiaSKoUGbiYnAWhQnE6T2xETw+1xdY9C9
JFaKQ+DMJ3jNPMsnAgMBAAGjezB5MAkGA1UdEwQCMAAwLAYJYIZIAYb4QgENBB8W
HU9wZW5TU0wgR2VuZXJhdGVkIENlcnRpZmljYXRlMB0GA1UdDgQWBBQp1OSrJrLD
dgAbBaemNYeJX0XMhjAfBgNVHSMEGDAWgBQAZYyKWmjdDaVlzv7EVKCuJOiGXjAN
BgkqhkiG9w0BAQsFAAOCAQEAmtP5JB05S4Boh/h20We5dHvYXjzhyBKH3Jc/Lis9
532U3lTLDEbm8oouKBiBLkUU6gYPYMN0oqDpg9p4Umr366r258JD24Obli3rzz3b
hf9xU8dLbYIOIu+ABsIYC6DPWwPZ6YhlQI+zUZAP44DmiVsCu2yqoH5+l2RK6+AS
xE+zcVpkH6J1Akzo+pK4a78DyO5CqjqLr2ahFqXz6IrzZEb4G5jVX8nCNiuaWy2K
slQw1CNLG43WNHJuSNr/L0lDCzKL7d+g2JK4SbDMCrKSYsUYSkchKjuBM2RxZ37+
CWZ83wIpX96Hs+c0KWL5sGBcZ3IpAgxuYaxllcL5aRerYg==
-----END CERTIFICATE-----
